; Function Attrs: mustprogress uwtable
define hidden void @_ZN5arith6solver16internalize_argsEP3appb(ptr noundef nonnull align 8 dereferenceable(1144) %this, ptr noundef %t, i1 noundef zeroext %force) local_unnamed_addr #3 align 2 {
entry:
  br i1 %force, label %if.end, label %land.lhs.true

land.lhs.true:                                    ; preds = %entry
  %call.i = tail call noundef nonnull align 8 dereferenceable(800) ptr @_ZNK3euf13th_euf_solver10get_configEv(ptr noundef nonnull align 8 dereferenceable(108) %this)
  %m_arith_reflect.i = getelementptr inbounds i8, ptr %call.i, i64 284
  %0 = load i8, ptr %m_arith_reflect.i, align 4
  %1 = and i8 %0, 1
  %tobool.not.i = icmp eq i8 %1, 0
  br i1 %tobool.not.i, label %lor.lhs.false.i, label %if.end

lor.lhs.false.i:                                  ; preds = %land.lhs.true
  %a.i = getelementptr inbounds i8, ptr %this, i64 928
  %call2.i = tail call noundef zeroext i1 @_ZNK10arith_util17is_underspecifiedEP4expr(ptr noundef nonnull align 8 dereferenceable(16) %a.i, ptr noundef %t)
  br i1 %call2.i, label %if.end, label %lor.rhs.i

lor.rhs.i:                                        ; preds = %lor.lhs.false.i
  %m_kind.i.i.i.i = getelementptr inbounds i8, ptr %t, i64 4
  %bf.load.i.i.i.i = load i32, ptr %m_kind.i.i.i.i, align 4
  %bf.clear.i.i.i.i = and i32 %bf.load.i.i.i.i, 65535
  %cmp.i.i.i = icmp eq i32 %bf.clear.i.i.i.i, 0
  br i1 %cmp.i.i.i, label %land.rhs.i.i, label %if.end

land.rhs.i.i:                                     ; preds = %lor.rhs.i
  %m_decl.i.i.i.i = getelementptr inbounds i8, ptr %t, i64 16
  %2 = load ptr, ptr %m_decl.i.i.i.i, align 8
  %m_info.i.i.i.i = getelementptr inbounds i8, ptr %2, i64 24
  %3 = load ptr, ptr %m_info.i.i.i.i, align 8
  %cmp.i.i.i.i = icmp eq ptr %3, null
  br i1 %cmp.i.i.i.i, label %if.end, label %_ZNK5arith6solver7reflectEP4expr.exit

_ZNK5arith6solver7reflectEP4expr.exit:            ; preds = %land.rhs.i.i
  %4 = load i32, ptr %3, align 8
  %.not = icmp eq i32 %4, 5
  br i1 %.not, label %for.end, label %if.end

if.end:                                           ; preds = %land.rhs.i.i, %lor.rhs.i, %land.lhs.true, %lor.lhs.false.i, %_ZNK5arith6solver7reflectEP4expr.exit, %entry
  %m_num_args.i = getelementptr inbounds i8, ptr %t, i64 24
  %5 = load i32, ptr %m_num_args.i, align 8
  %idx.ext.i = zext i32 %5 to i64
  %add.ptr.i.idx = shl nuw nsw i64 %idx.ext.i, 3
  %6 = getelementptr i8, ptr %t, i64 %add.ptr.i.idx
  %add.ptr.i.ptr = getelementptr i8, ptr %6, i64 32
  %cmp.not6 = icmp eq i32 %5, 0
  br i1 %cmp.not6, label %for.end, label %for.body.preheader

for.body.preheader:                               ; preds = %if.end
  %m_args.i.ptr = getelementptr inbounds i8, ptr %t, i64 32
  br label %for.body

for.body:                                         ; preds = %for.body.preheader, %for.body
  %__begin1.07 = phi ptr [ %incdec.ptr, %for.body ], [ %m_args.i.ptr, %for.body.preheader ]
  %7 = load ptr, ptr %__begin1.07, align 8
  %call4 = tail call noundef ptr @_ZN3euf13th_euf_solver13e_internalizeEP4expr(ptr noundef nonnull align 8 dereferenceable(108) %this, ptr noundef %7)
  %incdec.ptr = getelementptr inbounds i8, ptr %__begin1.07, i64 8
  %cmp.not = icmp eq ptr %incdec.ptr, %add.ptr.i.ptr
  br i1 %cmp.not, label %for.end, label %for.body

for.end:                                          ; preds = %for.body, %if.end, %_ZNK5arith6solver7reflectEP4expr.exit
  ret void
}